target datalayout = "e-m:e-p270:32:32-p271:32:32-p272:64:64-i64:64-i128:128-f80:128-n8:16:32:64-S128"
target triple = "x86_64-pc-linux-gnu"

%struct.reftable_addition = type { %struct.reftable_flock, ptr, ptr, i64, i64, i64 }
%struct.reftable_flock = type { ptr, i32, ptr }

; Function Attrs: nounwind uwtable
define dso_local i32 @reftable_stack_reload(ptr noundef %0) #0 {
  %2 = alloca i32, align 4
  %3 = alloca ptr, align 8
  %4 = alloca i32, align 4
  %5 = alloca i32, align 4
  store ptr %0, ptr %3, align 8, !tbaa !13
  call void @llvm.lifetime.start.p0(i64 4, ptr %4) #10
  %6 = load ptr, ptr %3, align 8, !tbaa !13
  %7 = call i32 @stack_uptodate(ptr noundef %6)
  store i32 %7, ptr %4, align 4, !tbaa !15
  %8 = load i32, ptr %4, align 4, !tbaa !15
  %9 = icmp sgt i32 %8, 0
  br i1 %9, label %10, label %13

10:                                               ; preds = %1
  %11 = load ptr, ptr %3, align 8, !tbaa !13
  %12 = call i32 @reftable_stack_reload_maybe_reuse(ptr noundef %11, i32 noundef 1)
  store i32 %12, ptr %2, align 4
  store i32 1, ptr %5, align 4
  br label %15

13:                                               ; preds = %1
  %14 = load i32, ptr %4, align 4, !tbaa !15
  store i32 %14, ptr %2, align 4
  store i32 1, ptr %5, align 4
  br label %15

15:                                               ; preds = %13, %10
  call void @llvm.lifetime.end.p0(i64 4, ptr %4) #10
  %16 = load i32, ptr %2, align 4
  ret i32 %16
}

; Function Attrs: nounwind uwtable
define internal i32 @stack_try_add(ptr noundef %0, ptr noundef %1, ptr noundef %2) #0 {
  %4 = alloca ptr, align 8
  %5 = alloca ptr, align 8
  %6 = alloca ptr, align 8
  %7 = alloca %struct.reftable_addition, align 8
  %8 = alloca i32, align 4
  store ptr %0, ptr %4, align 8, !tbaa !13
  store ptr %1, ptr %5, align 8, !tbaa !23
  store ptr %2, ptr %6, align 8, !tbaa !23
  call void @llvm.lifetime.start.p0(i64 64, ptr %7) #10
  call void @llvm.memset.p0.i64(ptr align 8 %7, i8 0, i64 64, i1 false)
  call void @llvm.lifetime.start.p0(i64 4, ptr %8) #10
  %9 = load ptr, ptr %4, align 8, !tbaa !13
  %10 = call i32 @reftable_stack_init_addition(ptr noundef %7, ptr noundef %9, i32 noundef 0)
  store i32 %10, ptr %8, align 4, !tbaa !15
  %11 = load i32, ptr %8, align 4, !tbaa !15
  %12 = icmp slt i32 %11, 0
  br i1 %12, label %13, label %14

13:                                               ; preds = %3
  br label %23

14:                                               ; preds = %3
  %15 = load ptr, ptr %5, align 8, !tbaa !23
  %16 = load ptr, ptr %6, align 8, !tbaa !23
  %17 = call i32 @reftable_addition_add(ptr noundef %7, ptr noundef %15, ptr noundef %16)
  store i32 %17, ptr %8, align 4, !tbaa !15
  %18 = load i32, ptr %8, align 4, !tbaa !15
  %19 = icmp slt i32 %18, 0
  br i1 %19, label %20, label %21

20:                                               ; preds = %14
  br label %23

21:                                               ; preds = %14
  %22 = call i32 @reftable_addition_commit(ptr noundef %7)
  store i32 %22, ptr %8, align 4, !tbaa !15
  br label %23

23:                                               ; preds = %21, %20, %13
  call void @reftable_addition_close(ptr noundef %7)
  %24 = load i32, ptr %8, align 4, !tbaa !15
  call void @llvm.lifetime.end.p0(i64 4, ptr %8) #10
  call void @llvm.lifetime.end.p0(i64 64, ptr %7) #10
  ret i32 %24
}

; Function Attrs: nounwind uwtable
define dso_local i32 @reftable_stack_add(ptr noundef %0, ptr noundef %1, ptr noundef %2) #0 {
  %4 = alloca i32, align 4
  %5 = alloca ptr, align 8
  %6 = alloca ptr, align 8
  %7 = alloca ptr, align 8
  %8 = alloca i32, align 4
  %9 = alloca i32, align 4
  store ptr %0, ptr %5, align 8, !tbaa !13
  store ptr %1, ptr %6, align 8, !tbaa !23
  store ptr %2, ptr %7, align 8, !tbaa !23
  call void @llvm.lifetime.start.p0(i64 4, ptr %8) #10
  %10 = load ptr, ptr %5, align 8, !tbaa !13
  %11 = load ptr, ptr %6, align 8, !tbaa !23
  %12 = load ptr, ptr %7, align 8, !tbaa !23
  %13 = call i32 @stack_try_add(ptr noundef %10, ptr noundef %11, ptr noundef %12)
  store i32 %13, ptr %8, align 4, !tbaa !15
  %14 = load i32, ptr %8, align 4, !tbaa !15
  %15 = icmp slt i32 %14, 0
  br i1 %15, label %16, label %24

16:                                               ; preds = %3
  %17 = load i32, ptr %8, align 4, !tbaa !15
  %18 = icmp eq i32 %17, -12
  br i1 %18, label %19, label %22

19:                                               ; preds = %16
  %20 = load ptr, ptr %5, align 8, !tbaa !13
  %21 = call i32 @reftable_stack_reload(ptr noundef %20)
  br label %22

22:                                               ; preds = %19, %16
  %23 = load i32, ptr %8, align 4, !tbaa !15
  store i32 %23, ptr %4, align 4
  store i32 1, ptr %9, align 4
  br label %25

24:                                               ; preds = %3
  store i32 0, ptr %4, align 4
  store i32 1, ptr %9, align 4
  br label %25

25:                                               ; preds = %24, %22
  call void @llvm.lifetime.end.p0(i64 4, ptr %8) #10
  %26 = load i32, ptr %4, align 4
  ret i32 %26
}