; Function Attrs: nounwind uwtable
define dso_local range(i32 -2147483648, 1) i32 @reftable_stack_add(ptr noundef %0, ptr noundef readonly captures(none) %1, ptr noundef %2) local_unnamed_addr #0 {
  %4 = alloca %struct.reftable_addition, align 8
  call void @llvm.lifetime.start.p0(i64 64, ptr nonnull %4) #16
  call void @llvm.memset.p0.i64(ptr noundef nonnull align 8 dereferenceable(64) %4, i8 0, i64 64, i1 false)
  %5 = call fastcc i32 @reftable_stack_init_addition(ptr noundef nonnull %4, ptr noundef %0, i32 noundef 0)
  %6 = icmp slt i32 %5, 0
  br i1 %6, label %stack_try_add.exit.thread, label %7

7:                                                ; preds = %3
  %8 = call i32 @reftable_addition_add(ptr noundef nonnull %4, ptr noundef readonly %1, ptr noundef %2)
  %9 = icmp slt i32 %8, 0
  br i1 %9, label %stack_try_add.exit.thread, label %stack_try_add.exit

stack_try_add.exit.thread:                        ; preds = %3, %7
  %.0.i.ph = phi i32 [ %8, %7 ], [ %5, %3 ]
  call fastcc void @reftable_addition_close(ptr noundef nonnull %4)
  call void @llvm.lifetime.end.p0(i64 64, ptr nonnull %4) #16
  br label %12

stack_try_add.exit:                               ; preds = %7
  %10 = call i32 @reftable_addition_commit(ptr noundef nonnull %4)
  call fastcc void @reftable_addition_close(ptr noundef nonnull %4)
  call void @llvm.lifetime.end.p0(i64 64, ptr nonnull %4) #16
  %11 = icmp slt i32 %10, 0
  br i1 %11, label %12, label %reftable_stack_reload.exit

12:                                               ; preds = %stack_try_add.exit.thread, %stack_try_add.exit
  %.0.i10 = phi i32 [ %.0.i.ph, %stack_try_add.exit.thread ], [ %10, %stack_try_add.exit ]
  %13 = icmp eq i32 %.0.i10, -12
  br i1 %13, label %14, label %reftable_stack_reload.exit

14:                                               ; preds = %12
  %15 = call fastcc i32 @stack_uptodate(ptr noundef %0)
  %16 = icmp sgt i32 %15, 0
  br i1 %16, label %17, label %reftable_stack_reload.exit

17:                                               ; preds = %14
  %18 = call fastcc i32 @reftable_stack_reload_maybe_reuse(ptr noundef %0, i32 noundef 1)
  br label %reftable_stack_reload.exit

reftable_stack_reload.exit:                       ; preds = %17, %14, %stack_try_add.exit, %12
  %.0 = phi i32 [ %.0.i10, %12 ], [ 0, %stack_try_add.exit ], [ -12, %14 ], [ -12, %17 ]
  ret i32 %.0
}